; ModuleID = '20/1039.c'
source_filename = "20/1039.c"
target datalayout = "e-m:e-p270:32:32-p271:32:32-p272:64:64-i64:64-f80:128-n8:16:32:64-S128"
target triple = "x86_64-pc-linux-gnu"

@.str = private unnamed_addr constant [5 x i8] c"%s%s\00", align 1
@.str.1 = private unnamed_addr constant [3 x i8] c"%c\00", align 1
@.str.2 = private unnamed_addr constant [2 x i8] c"\0A\00", align 1

; Function Attrs: noinline nounwind uwtable
define dso_local i32 @main() #0 {
  %1 = alloca i32, align 4
  %2 = alloca i32, align 4
  %3 = alloca i32, align 4
  %4 = alloca i32, align 4
  %5 = alloca i32, align 4
  %6 = alloca [11 x i8], align 1
  %7 = alloca [4 x i8], align 1
  %8 = alloca i8, align 1
  store i32 0, i32* %1, align 4
  br label %9

9:                                                ; preds = %97, %0
  %10 = getelementptr inbounds [11 x i8], [11 x i8]* %6, i64 0, i64 0
  %11 = getelementptr inbounds [4 x i8], [4 x i8]* %7, i64 0, i64 0
  %12 = call i32 (i8*, ...) @__isoc99_scanf(i8* getelementptr inbounds ([5 x i8], [5 x i8]* @.str, i64 0, i64 0), i8* %10, i8* %11)
  %13 = icmp ne i32 %12, -1
  br i1 %13, label %14, label %99

14:                                               ; preds = %9
  %15 = getelementptr inbounds [11 x i8], [11 x i8]* %6, i64 0, i64 0
  %16 = load i8, i8* %15, align 1
  store i8 %16, i8* %8, align 1
  store i32 0, i32* %5, align 4
  store i32 1, i32* %3, align 4
  br label %17

17:                                               ; preds = %41, %14
  %18 = load i32, i32* %3, align 4
  %19 = sext i32 %18 to i64
  %20 = getelementptr inbounds [11 x i8], [11 x i8]* %6, i64 0, i64 %19
  %21 = load i8, i8* %20, align 1
  %22 = sext i8 %21 to i32
  %23 = icmp ne i32 %22, 0
  br i1 %23, label %24, label %44

24:                                               ; preds = %17
  %25 = load i32, i32* %3, align 4
  %26 = sext i32 %25 to i64
  %27 = getelementptr inbounds [11 x i8], [11 x i8]* %6, i64 0, i64 %26
  %28 = load i8, i8* %27, align 1
  %29 = sext i8 %28 to i32
  %30 = load i8, i8* %8, align 1
  %31 = sext i8 %30 to i32
  %32 = sub nsw i32 %29, %31
  %33 = icmp sgt i32 %32, 0
  br i1 %33, label %34, label %40

34:                                               ; preds = %24
  %35 = load i32, i32* %3, align 4
  %36 = sext i32 %35 to i64
  %37 = getelementptr inbounds [11 x i8], [11 x i8]* %6, i64 0, i64 %36
  %38 = load i8, i8* %37, align 1
  store i8 %38, i8* %8, align 1
  %39 = load i32, i32* %3, align 4
  store i32 %39, i32* %5, align 4
  br label %40

40:                                               ; preds = %34, %24
  br label %41

41:                                               ; preds = %40
  %42 = load i32, i32* %3, align 4
  %43 = add nsw i32 %42, 1
  store i32 %43, i32* %3, align 4
  br label %17

44:                                               ; preds = %17
  store i32 0, i32* %3, align 4
  br label %45

45:                                               ; preds = %56, %44
  %46 = load i32, i32* %3, align 4
  %47 = load i32, i32* %5, align 4
  %48 = icmp sle i32 %46, %47
  br i1 %48, label %49, label %59

49:                                               ; preds = %45
  %50 = load i32, i32* %3, align 4
  %51 = sext i32 %50 to i64
  %52 = getelementptr inbounds [11 x i8], [11 x i8]* %6, i64 0, i64 %51
  %53 = load i8, i8* %52, align 1
  %54 = sext i8 %53 to i32
  %55 = call i32 (i8*, ...) @printf(i8* getelementptr inbounds ([3 x i8], [3 x i8]* @.str.1, i64 0, i64 0), i32 %54)
  br label %56

56:                                               ; preds = %49
  %57 = load i32, i32* %3, align 4
  %58 = add nsw i32 %57, 1
  store i32 %58, i32* %3, align 4
  br label %45

59:                                               ; preds = %45
  store i32 0, i32* %3, align 4
  br label %60

60:                                               ; preds = %74, %59
  %61 = load i32, i32* %3, align 4
  %62 = sext i32 %61 to i64
  %63 = getelementptr inbounds [4 x i8], [4 x i8]* %7, i64 0, i64 %62
  %64 = load i8, i8* %63, align 1
  %65 = sext i8 %64 to i32
  %66 = icmp ne i32 %65, 0
  br i1 %66, label %67, label %77

67:                                               ; preds = %60
  %68 = load i32, i32* %3, align 4
  %69 = sext i32 %68 to i64
  %70 = getelementptr inbounds [4 x i8], [4 x i8]* %7, i64 0, i64 %69
  %71 = load i8, i8* %70, align 1
  %72 = sext i8 %71 to i32
  %73 = call i32 (i8*, ...) @printf(i8* getelementptr inbounds ([3 x i8], [3 x i8]* @.str.1, i64 0, i64 0), i32 %72)
  br label %74

74:                                               ; preds = %67
  %75 = load i32, i32* %3, align 4
  %76 = add nsw i32 %75, 1
  store i32 %76, i32* %3, align 4
  br label %60

77:                                               ; preds = %60
  %78 = load i32, i32* %5, align 4
  %79 = add nsw i32 %78, 1
  store i32 %79, i32* %3, align 4
  br label %80

80:                                               ; preds = %94, %77
  %81 = load i32, i32* %3, align 4
  %82 = sext i32 %81 to i64
  %83 = getelementptr inbounds [11 x i8], [11 x i8]* %6, i64 0, i64 %82
  %84 = load i8, i8* %83, align 1
  %85 = sext i8 %84 to i32
  %86 = icmp ne i32 %85, 0
  br i1 %86, label %87, label %97

87:                                               ; preds = %80
  %88 = load i32, i32* %3, align 4
  %89 = sext i32 %88 to i64
  %90 = getelementptr inbounds [11 x i8], [11 x i8]* %6, i64 0, i64 %89
  %91 = load i8, i8* %90, align 1
  %92 = sext i8 %91 to i32
  %93 = call i32 (i8*, ...) @printf(i8* getelementptr inbounds ([3 x i8], [3 x i8]* @.str.1, i64 0, i64 0), i32 %92)
  br label %94

94:                                               ; preds = %87
  %95 = load i32, i32* %3, align 4
  %96 = add nsw i32 %95, 1
  store i32 %96, i32* %3, align 4
  br label %80

97:                                               ; preds = %80
  %98 = call i32 (i8*, ...) @printf(i8* getelementptr inbounds ([2 x i8], [2 x i8]* @.str.2, i64 0, i64 0))
  br label %9

99:                                               ; preds = %9
  ret i32 0
}

declare dso_local i32 @__isoc99_scanf(i8*, ...) #1

declare dso_local i32 @printf(i8*, ...) #1


!llvm.module.flags = !{!0}
!llvm.ident = !{!1}

!0 = !{i32 1, !"wchar_size", i32 4}
!1 = !{!"clang version 10.0.0-4ubuntu1 "}
